(lp1
I1
aI4
aI5
aI7
aI9
aI16
aI18
aI20
aI22
aI25
aI26
aI27
aI29
aI31
aI32
aI33
aI34
aI35
aI37
aI38
aI40
aI45
aI48
aI51
aI53
aI58
aI59
aI61
aI62
aI67
aI69
aI78
aI79
aI82
aI84
aI86
aI89
aI90
aI92
aI93
aI94
aI95
aI97
aI99
aI100
aI101
a.